target datalayout = "e-m:e-p270:32:32-p271:32:32-p272:64:64-i64:64-i128:128-f80:128-n8:16:32:64-S128"
target triple = "x86_64-pc-linux-gnu"

%"class.std::shared_ptr" = type { %"class.std::__shared_ptr" }
%"class.std::__shared_ptr" = type { ptr, %"class.std::__shared_count" }
%"class.std::__shared_count" = type { ptr }
%"class.std::__cxx11::basic_string" = type { %"struct.std::__cxx11::basic_string<char>::_Alloc_hider", i64, %union.anon }
%"struct.std::__cxx11::basic_string<char>::_Alloc_hider" = type { ptr }
%union.anon = type { i64, [8 x i8] }
%"class.json11::Json" = type { %"class.std::shared_ptr" }
%"struct.json11::(anonymous namespace)::JsonParser" = type { ptr, i64, ptr, i8, i32 }

@.str = private unnamed_addr constant [21 x i8] c"unexpected trailing \00", align 1
@_ZN6json114JsonC1Ev = unnamed_addr alias void (ptr), ptr @_ZN6json114JsonC2Ev

; Function Attrs: mustprogress nounwind uwtable
define linkonce_odr void @_ZNSt14__shared_countILN9__gnu_cxx12_Lock_policyE2EE7_M_swapERS2_(ptr noundef nonnull align 8 dereferenceable(8) %0, ptr noundef nonnull align 8 dereferenceable(8) %1) #1 comdat align 2 {
  %3 = alloca ptr, align 8
  %4 = alloca ptr, align 8
  %5 = alloca ptr, align 8
  store ptr %0, ptr %3, align 8
  store ptr %1, ptr %4, align 8
  %6 = load ptr, ptr %3, align 8
  %7 = load ptr, ptr %4, align 8
  %8 = getelementptr inbounds %"class.std::__shared_count", ptr %7, i32 0, i32 0
  %9 = load ptr, ptr %8, align 8
  store ptr %9, ptr %5, align 8
  %10 = getelementptr inbounds %"class.std::__shared_count", ptr %6, i32 0, i32 0
  %11 = load ptr, ptr %10, align 8
  %12 = load ptr, ptr %4, align 8
  %13 = getelementptr inbounds %"class.std::__shared_count", ptr %12, i32 0, i32 0
  store ptr %11, ptr %13, align 8
  %14 = load ptr, ptr %5, align 8
  %15 = getelementptr inbounds %"class.std::__shared_count", ptr %6, i32 0, i32 0
  store ptr %14, ptr %15, align 8
  ret void
}

; Function Attrs: mustprogress nounwind uwtable
define linkonce_odr void @_ZNSt14__shared_countILN9__gnu_cxx12_Lock_policyE2EEC2Ev(ptr noundef nonnull align 8 dereferenceable(8) %0) unnamed_addr #1 comdat align 2 {
  %2 = alloca ptr, align 8
  store ptr %0, ptr %2, align 8
  %3 = load ptr, ptr %2, align 8
  %4 = getelementptr inbounds %"class.std::__shared_count", ptr %3, i32 0, i32 0
  store ptr null, ptr %4, align 8
  ret void
}

; Function Attrs: mustprogress nounwind uwtable
define linkonce_odr void @_ZNSt12__shared_ptrIN6json119JsonValueELN9__gnu_cxx12_Lock_policyE2EEC2EOS4_(ptr noundef nonnull align 8 dereferenceable(16) %0, ptr noundef nonnull align 8 dereferenceable(16) %1) unnamed_addr #1 comdat align 2 {
  %3 = alloca ptr, align 8
  %4 = alloca ptr, align 8
  store ptr %0, ptr %3, align 8
  store ptr %1, ptr %4, align 8
  %5 = load ptr, ptr %3, align 8
  %6 = getelementptr inbounds %"class.std::__shared_ptr", ptr %5, i32 0, i32 0
  %7 = load ptr, ptr %4, align 8
  %8 = getelementptr inbounds %"class.std::__shared_ptr", ptr %7, i32 0, i32 0
  %9 = load ptr, ptr %8, align 8
  store ptr %9, ptr %6, align 8
  %10 = getelementptr inbounds %"class.std::__shared_ptr", ptr %5, i32 0, i32 1
  call void @_ZNSt14__shared_countILN9__gnu_cxx12_Lock_policyE2EEC2Ev(ptr noundef nonnull align 8 dereferenceable(8) %10) #4
  %11 = getelementptr inbounds %"class.std::__shared_ptr", ptr %5, i32 0, i32 1
  %12 = load ptr, ptr %4, align 8
  %13 = getelementptr inbounds %"class.std::__shared_ptr", ptr %12, i32 0, i32 1
  call void @_ZNSt14__shared_countILN9__gnu_cxx12_Lock_policyE2EE7_M_swapERS2_(ptr noundef nonnull align 8 dereferenceable(8) %11, ptr noundef nonnull align 8 dereferenceable(8) %13) #4
  %14 = load ptr, ptr %4, align 8
  %15 = getelementptr inbounds %"class.std::__shared_ptr", ptr %14, i32 0, i32 0
  store ptr null, ptr %15, align 8
  ret void
}

; Function Attrs: mustprogress nounwind uwtable
define linkonce_odr void @_ZNSt10shared_ptrIN6json119JsonValueEEC2EOS2_(ptr noundef nonnull align 8 dereferenceable(16) %0, ptr noundef nonnull align 8 dereferenceable(16) %1) unnamed_addr #1 comdat align 2 {
  %3 = alloca ptr, align 8
  %4 = alloca ptr, align 8
  store ptr %0, ptr %3, align 8
  store ptr %1, ptr %4, align 8
  %5 = load ptr, ptr %3, align 8
  %6 = load ptr, ptr %4, align 8
  call void @_ZNSt12__shared_ptrIN6json119JsonValueELN9__gnu_cxx12_Lock_policyE2EEC2EOS4_(ptr noundef nonnull align 8 dereferenceable(16) %5, ptr noundef nonnull align 8 dereferenceable(16) %6) #4
  ret void
}

; Function Attrs: mustprogress nounwind uwtable
define linkonce_odr void @_ZN6json114JsonC2EOS0_(ptr noundef nonnull align 8 dereferenceable(16) %0, ptr noundef nonnull align 8 dereferenceable(16) %1) unnamed_addr #1 comdat align 2 {
  %3 = alloca ptr, align 8
  %4 = alloca ptr, align 8
  store ptr %0, ptr %3, align 8
  store ptr %1, ptr %4, align 8
  %5 = load ptr, ptr %3, align 8
  %6 = getelementptr inbounds %"class.json11::Json", ptr %5, i32 0, i32 0
  %7 = load ptr, ptr %4, align 8
  %8 = getelementptr inbounds %"class.json11::Json", ptr %7, i32 0, i32 0
  call void @_ZNSt10shared_ptrIN6json119JsonValueEEC2EOS2_(ptr noundef nonnull align 8 dereferenceable(16) %6, ptr noundef nonnull align 8 dereferenceable(16) %8) #4
  ret void
}

; Function Attrs: mustprogress uwtable
define linkonce_odr void @_ZStplIcSt11char_traitsIcESaIcEENSt7__cxx1112basic_stringIT_T0_T1_EEPKS5_OS8_(ptr dead_on_unwind noalias writable sret(%"class.std::__cxx11::basic_string") align 8 %0, ptr noundef %1, ptr noundef nonnull align 8 dereferenceable(32) %2) #0 comdat {
  %4 = alloca ptr, align 8
  %5 = alloca ptr, align 8
  %6 = alloca ptr, align 8
  store ptr %0, ptr %4, align 8
  store ptr %1, ptr %5, align 8
  store ptr %2, ptr %6, align 8
  %7 = load ptr, ptr %6, align 8
  %8 = load ptr, ptr %5, align 8
  %9 = call noundef nonnull align 8 dereferenceable(32) ptr @_ZNSt7__cxx1112basic_stringIcSt11char_traitsIcESaIcEE6insertEmPKc(ptr noundef nonnull align 8 dereferenceable(32) %7, i64 noundef 0, ptr noundef %8)
  call void @_ZNSt7__cxx1112basic_stringIcSt11char_traitsIcESaIcEEC1EOS4_(ptr noundef nonnull align 8 dereferenceable(32) %0, ptr noundef nonnull align 8 dereferenceable(32) %9) #4
  ret void
}

; Function Attrs: mustprogress uwtable
define void @_ZN6json114Json5parseERKNSt7__cxx1112basic_stringIcSt11char_traitsIcESaIcEEERS6_NS_9JsonParseE(ptr dead_on_unwind noalias writable sret(%"class.json11::Json") align 8 %0, ptr noundef nonnull align 8 dereferenceable(32) %1, ptr noundef nonnull align 8 dereferenceable(32) %2, i32 noundef %3) #0 align 2 personality ptr @__gxx_personality_v0 {
  %5 = alloca ptr, align 8
  %6 = alloca ptr, align 8
  %7 = alloca ptr, align 8
  %8 = alloca i32, align 4
  %9 = alloca %"struct.json11::(anonymous namespace)::JsonParser", align 8
  %10 = alloca %"class.json11::Json", align 8
  %11 = alloca ptr, align 8
  %12 = alloca i32, align 4
  %13 = alloca i32, align 4
  %14 = alloca %"class.std::__cxx11::basic_string", align 8
  %15 = alloca %"class.std::__cxx11::basic_string", align 8
  store ptr %0, ptr %5, align 8
  store ptr %1, ptr %6, align 8
  store ptr %2, ptr %7, align 8
  store i32 %3, ptr %8, align 4
  %16 = getelementptr inbounds %"struct.json11::(anonymous namespace)::JsonParser", ptr %9, i32 0, i32 0
  %17 = load ptr, ptr %6, align 8
  store ptr %17, ptr %16, align 8
  %18 = getelementptr inbounds %"struct.json11::(anonymous namespace)::JsonParser", ptr %9, i32 0, i32 1
  store i64 0, ptr %18, align 8
  %19 = getelementptr inbounds %"struct.json11::(anonymous namespace)::JsonParser", ptr %9, i32 0, i32 2
  %20 = load ptr, ptr %7, align 8
  store ptr %20, ptr %19, align 8
  %21 = getelementptr inbounds %"struct.json11::(anonymous namespace)::JsonParser", ptr %9, i32 0, i32 3
  store i8 0, ptr %21, align 8
  %22 = getelementptr inbounds %"struct.json11::(anonymous namespace)::JsonParser", ptr %9, i32 0, i32 4
  %23 = load i32, ptr %8, align 4
  store i32 %23, ptr %22, align 4
  call void @_ZN6json1112_GLOBAL__N_110JsonParser10parse_jsonEi(ptr dead_on_unwind writable sret(%"class.json11::Json") align 8 %10, ptr noundef nonnull align 8 dereferenceable(32) %9, i32 noundef 0)
  invoke void @_ZN6json1112_GLOBAL__N_110JsonParser15consume_garbageEv(ptr noundef nonnull align 8 dereferenceable(32) %9)
          to label %24 unwind label %29

24:                                               ; preds = %4
  %25 = getelementptr inbounds %"struct.json11::(anonymous namespace)::JsonParser", ptr %9, i32 0, i32 3
  %26 = load i8, ptr %25, align 8
  %27 = trunc i8 %26 to i1
  br i1 %27, label %28, label %33

28:                                               ; preds = %24
  call void @_ZN6json114JsonC1Ev(ptr noundef nonnull align 8 dereferenceable(16) %0) #4
  store i32 1, ptr %13, align 4
  br label %58

29:                                               ; preds = %39, %4
  %30 = landingpad { ptr, i32 }
          cleanup
  %31 = extractvalue { ptr, i32 } %30, 0
  store ptr %31, ptr %11, align 8
  %32 = extractvalue { ptr, i32 } %30, 1
  store i32 %32, ptr %12, align 4
  br label %59

33:                                               ; preds = %24
  %34 = getelementptr inbounds %"struct.json11::(anonymous namespace)::JsonParser", ptr %9, i32 0, i32 1
  %35 = load i64, ptr %34, align 8
  %36 = load ptr, ptr %6, align 8
  %37 = call noundef i64 @_ZNKSt7__cxx1112basic_stringIcSt11char_traitsIcESaIcEE4sizeEv(ptr noundef nonnull align 8 dereferenceable(32) %36) #4
  %38 = icmp ne i64 %35, %37
  br i1 %38, label %39, label %57

39:                                               ; preds = %33
  %40 = load ptr, ptr %6, align 8
  %41 = getelementptr inbounds %"struct.json11::(anonymous namespace)::JsonParser", ptr %9, i32 0, i32 1
  %42 = load i64, ptr %41, align 8
  %43 = call noundef nonnull align 1 dereferenceable(1) ptr @_ZNKSt7__cxx1112basic_stringIcSt11char_traitsIcESaIcEEixEm(ptr noundef nonnull align 8 dereferenceable(32) %40, i64 noundef %42) #4
  %44 = load i8, ptr %43, align 1
  invoke void @_ZN6json11L3escB5cxx11Ec(ptr dead_on_unwind writable sret(%"class.std::__cxx11::basic_string") align 8 %15, i8 noundef signext %44)
          to label %45 unwind label %29

45:                                               ; preds = %39
  invoke void @_ZStplIcSt11char_traitsIcESaIcEENSt7__cxx1112basic_stringIT_T0_T1_EEPKS5_OS8_(ptr dead_on_unwind writable sret(%"class.std::__cxx11::basic_string") align 8 %14, ptr noundef @.str, ptr noundef nonnull align 8 dereferenceable(32) %15)
          to label %46 unwind label %48

46:                                               ; preds = %45
  invoke void @_ZN6json1112_GLOBAL__N_110JsonParser4failEONSt7__cxx1112basic_stringIcSt11char_traitsIcESaIcEEE(ptr dead_on_unwind writable sret(%"class.json11::Json") align 8 %0, ptr noundef nonnull align 8 dereferenceable(32) %9, ptr noundef nonnull align 8 dereferenceable(32) %14)
          to label %47 unwind label %52

47:                                               ; preds = %46
  call void @_ZNSt7__cxx1112basic_stringIcSt11char_traitsIcESaIcEED1Ev(ptr noundef nonnull align 8 dereferenceable(32) %14) #4
  call void @_ZNSt7__cxx1112basic_stringIcSt11char_traitsIcESaIcEED1Ev(ptr noundef nonnull align 8 dereferenceable(32) %15) #4
  store i32 1, ptr %13, align 4
  br label %58

48:                                               ; preds = %45
  %49 = landingpad { ptr, i32 }
          cleanup
  %50 = extractvalue { ptr, i32 } %49, 0
  store ptr %50, ptr %11, align 8
  %51 = extractvalue { ptr, i32 } %49, 1
  store i32 %51, ptr %12, align 4
  br label %56

52:                                               ; preds = %46
  %53 = landingpad { ptr, i32 }
          cleanup
  %54 = extractvalue { ptr, i32 } %53, 0
  store ptr %54, ptr %11, align 8
  %55 = extractvalue { ptr, i32 } %53, 1
  store i32 %55, ptr %12, align 4
  call void @_ZNSt7__cxx1112basic_stringIcSt11char_traitsIcESaIcEED1Ev(ptr noundef nonnull align 8 dereferenceable(32) %14) #4
  br label %56

56:                                               ; preds = %52, %48
  call void @_ZNSt7__cxx1112basic_stringIcSt11char_traitsIcESaIcEED1Ev(ptr noundef nonnull align 8 dereferenceable(32) %15) #4
  br label %59

57:                                               ; preds = %33
  call void @_ZN6json114JsonC2EOS0_(ptr noundef nonnull align 8 dereferenceable(16) %0, ptr noundef nonnull align 8 dereferenceable(16) %10) #4
  store i32 1, ptr %13, align 4
  br label %58

58:                                               ; preds = %57, %47, %28
  call void @_ZN6json114JsonD2Ev(ptr noundef nonnull align 8 dereferenceable(16) %10) #4
  ret void

59:                                               ; preds = %56, %29
  call void @_ZN6json114JsonD2Ev(ptr noundef nonnull align 8 dereferenceable(16) %10) #4
  br label %60

60:                                               ; preds = %59
  %61 = load ptr, ptr %11, align 8
  %62 = load i32, ptr %12, align 4
  %63 = insertvalue { ptr, i32 } poison, ptr %61, 0
  %64 = insertvalue { ptr, i32 } %63, i32 %62, 1
  resume { ptr, i32 } %64
}