; Function Attrs: mustprogress uwtable
define void @_ZN6json114Json5parseERKNSt7__cxx1112basic_stringIcSt11char_traitsIcESaIcEEERS6_NS_9JsonParseE(ptr dead_on_unwind noalias writable sret(%"class.json11::Json") align 8 %0, ptr noundef nonnull align 8 dereferenceable(32) %1, ptr noundef nonnull align 8 dereferenceable(32) %2, i32 noundef %3) local_unnamed_addr #0 align 2 personality ptr @__gxx_personality_v0 {
  %5 = alloca %"struct.json11::(anonymous namespace)::JsonParser", align 8
  %6 = alloca %"class.json11::Json", align 16
  %7 = alloca %"class.std::__cxx11::basic_string", align 8
  %8 = alloca %"class.std::__cxx11::basic_string", align 8
  store ptr %1, ptr %5, align 8
  %9 = getelementptr inbounds i8, ptr %5, i64 8
  store i64 0, ptr %9, align 8
  %10 = getelementptr inbounds i8, ptr %5, i64 16
  store ptr %2, ptr %10, align 8
  %11 = getelementptr inbounds i8, ptr %5, i64 24
  store i8 0, ptr %11, align 8
  %12 = getelementptr inbounds i8, ptr %5, i64 28
  store i32 %3, ptr %12, align 4
  call fastcc void @_ZN6json1112_GLOBAL__N_110JsonParser10parse_jsonEi(ptr dead_on_unwind noalias nonnull writable align 8 %6, ptr noundef nonnull align 8 dereferenceable(32) %5, i32 noundef 0)
  invoke fastcc void @_ZN6json1112_GLOBAL__N_110JsonParser15consume_garbageEv(ptr noundef nonnull align 8 dereferenceable(32) %5)
          to label %13 unwind label %17

13:                                               ; preds = %4
  %14 = load i8, ptr %11, align 8
  %15 = and i8 %14, 1
  %.not = icmp eq i8 %15, 0
  br i1 %.not, label %19, label %16

16:                                               ; preds = %13
  call void @_ZN6json114JsonC1Ev(ptr noundef nonnull align 8 dereferenceable(16) %0) #20
  br label %38

17:                                               ; preds = %22, %4
  %18 = landingpad { ptr, i32 }
          cleanup
  br label %75

19:                                               ; preds = %13
  %20 = load i64, ptr %9, align 8
  %21 = call noundef i64 @_ZNKSt7__cxx1112basic_stringIcSt11char_traitsIcESaIcEE4sizeEv(ptr noundef nonnull align 8 dereferenceable(32) %1) #20
  %.not8 = icmp eq i64 %20, %21
  br i1 %.not8, label %35, label %22

22:                                               ; preds = %19
  %23 = load i64, ptr %9, align 8
  %24 = call noundef nonnull align 1 dereferenceable(1) ptr @_ZNKSt7__cxx1112basic_stringIcSt11char_traitsIcESaIcEEixEm(ptr noundef nonnull align 8 dereferenceable(32) %1, i64 noundef %23) #20
  %25 = load i8, ptr %24, align 1
  invoke fastcc void @_ZN6json11L3escB5cxx11Ec(ptr dead_on_unwind noalias nonnull writable align 8 %8, i8 noundef signext %25)
          to label %26 unwind label %17

26:                                               ; preds = %22
  %27 = invoke noundef nonnull align 8 dereferenceable(32) ptr @_ZNSt7__cxx1112basic_stringIcSt11char_traitsIcESaIcEE6insertEmPKc(ptr noundef nonnull align 8 dereferenceable(32) %8, i64 noundef 0, ptr noundef nonnull @.str)
          to label %28 unwind label %30

28:                                               ; preds = %26
  call void @_ZNSt7__cxx1112basic_stringIcSt11char_traitsIcESaIcEEC1EOS4_(ptr noundef nonnull align 8 dereferenceable(32) %7, ptr noundef nonnull align 8 dereferenceable(32) %27) #20
  invoke fastcc void @_ZN6json1112_GLOBAL__N_110JsonParser4failEONSt7__cxx1112basic_stringIcSt11char_traitsIcESaIcEEE(ptr dead_on_unwind noalias writable align 8 %0, ptr noundef nonnull align 8 dereferenceable(32) %5, ptr noundef nonnull align 8 dereferenceable(32) %7)
          to label %29 unwind label %32

29:                                               ; preds = %28
  call void @_ZNSt7__cxx1112basic_stringIcSt11char_traitsIcESaIcEED1Ev(ptr noundef nonnull align 8 dereferenceable(32) %7) #20
  call void @_ZNSt7__cxx1112basic_stringIcSt11char_traitsIcESaIcEED1Ev(ptr noundef nonnull align 8 dereferenceable(32) %8) #20
  br label %38

30:                                               ; preds = %26
  %31 = landingpad { ptr, i32 }
          cleanup
  br label %34

32:                                               ; preds = %28
  %33 = landingpad { ptr, i32 }
          cleanup
  call void @_ZNSt7__cxx1112basic_stringIcSt11char_traitsIcESaIcEED1Ev(ptr noundef nonnull align 8 dereferenceable(32) %7) #20
  br label %34

34:                                               ; preds = %32, %30
  %.pn = phi { ptr, i32 } [ %33, %32 ], [ %31, %30 ]
  call void @_ZNSt7__cxx1112basic_stringIcSt11char_traitsIcESaIcEED1Ev(ptr noundef nonnull align 8 dereferenceable(32) %8) #20
  br label %75

35:                                               ; preds = %19
  %36 = getelementptr inbounds i8, ptr %6, i64 8
  %37 = load <2 x ptr>, ptr %6, align 16
  store ptr null, ptr %36, align 8
  store <2 x ptr> %37, ptr %0, align 8
  store ptr null, ptr %6, align 16
  br label %38

38:                                               ; preds = %35, %29, %16
  %39 = getelementptr inbounds i8, ptr %6, i64 8
  %40 = load ptr, ptr %39, align 8
  %.not.i.i.i.i = icmp eq ptr %40, null
  br i1 %.not.i.i.i.i, label %_ZN6json114JsonD2Ev.exit, label %41

41:                                               ; preds = %38
  %42 = getelementptr inbounds i8, ptr %40, i64 8
  %43 = load atomic i64, ptr %42 acquire, align 8
  %44 = icmp eq i64 %43, 4294967297
  %45 = trunc i64 %43 to i32
  br i1 %44, label %46, label %51

46:                                               ; preds = %41
  store i32 0, ptr %42, align 8
  %47 = getelementptr inbounds i8, ptr %40, i64 12
  store i32 0, ptr %47, align 4
  %48 = load ptr, ptr %40, align 8
  %49 = getelementptr inbounds i8, ptr %48, i64 16
  %50 = load ptr, ptr %49, align 8
  call void %50(ptr noundef nonnull align 8 dereferenceable(16) %40) #20
  br label %_ZNSt16_Sp_counted_baseILN9__gnu_cxx12_Lock_policyE2EE24_M_release_last_use_coldEv.exit.sink.split.i.i.i.i.i

51:                                               ; preds = %41
  %52 = load i8, ptr @__libc_single_threaded, align 1
  %.not.i.i.i.i.i = icmp eq i8 %52, 0
  br i1 %.not.i.i.i.i.i, label %55, label %53

53:                                               ; preds = %51
  %54 = add nsw i32 %45, -1
  store i32 %54, ptr %42, align 4
  br label %57

55:                                               ; preds = %51
  %56 = atomicrmw volatile add ptr %42, i32 -1 acq_rel, align 4
  br label %57

57:                                               ; preds = %55, %53
  %.0.i.i.i.i.i = phi i32 [ %45, %53 ], [ %56, %55 ]
  %58 = icmp eq i32 %.0.i.i.i.i.i, 1
  br i1 %58, label %59, label %_ZN6json114JsonD2Ev.exit

59:                                               ; preds = %57
  %60 = load ptr, ptr %40, align 8
  %61 = getelementptr inbounds i8, ptr %60, i64 16
  %62 = load ptr, ptr %61, align 8
  call void %62(ptr noundef nonnull align 8 dereferenceable(16) %40) #20
  %63 = getelementptr inbounds i8, ptr %40, i64 12
  %64 = load i8, ptr @__libc_single_threaded, align 1
  %.not.i.i.i.i.i.i.i = icmp eq i8 %64, 0
  br i1 %.not.i.i.i.i.i.i.i, label %68, label %65

65:                                               ; preds = %59
  %66 = load i32, ptr %63, align 4
  %67 = add nsw i32 %66, -1
  store i32 %67, ptr %63, align 4
  br label %70

68:                                               ; preds = %59
  %69 = atomicrmw volatile add ptr %63, i32 -1 acq_rel, align 4
  br label %70

70:                                               ; preds = %68, %65
  %.0.i.i.i.i.i.i.i = phi i32 [ %66, %65 ], [ %69, %68 ]
  %71 = icmp eq i32 %.0.i.i.i.i.i.i.i, 1
  br i1 %71, label %_ZNSt16_Sp_counted_baseILN9__gnu_cxx12_Lock_policyE2EE24_M_release_last_use_coldEv.exit.sink.split.i.i.i.i.i, label %_ZN6json114JsonD2Ev.exit

_ZNSt16_Sp_counted_baseILN9__gnu_cxx12_Lock_policyE2EE24_M_release_last_use_coldEv.exit.sink.split.i.i.i.i.i: ; preds = %70, %46
  %72 = load ptr, ptr %40, align 8
  %73 = getelementptr inbounds i8, ptr %72, i64 24
  %74 = load ptr, ptr %73, align 8
  call void %74(ptr noundef nonnull align 8 dereferenceable(16) %40) #20
  br label %_ZN6json114JsonD2Ev.exit

_ZN6json114JsonD2Ev.exit:                         ; preds = %38, %57, %70, %_ZNSt16_Sp_counted_baseILN9__gnu_cxx12_Lock_policyE2EE24_M_release_last_use_coldEv.exit.sink.split.i.i.i.i.i
  ret void

75:                                               ; preds = %34, %17
  %.pn.pn = phi { ptr, i32 } [ %.pn, %34 ], [ %18, %17 ]
  call void @_ZN6json114JsonD2Ev(ptr noundef nonnull align 8 dereferenceable(16) %6) #20
  resume { ptr, i32 } %.pn.pn
}